target datalayout = "e-m:e-p270:32:32-p271:32:32-p272:64:64-i64:64-i128:128-f80:128-n8:16:32:64-S128"
target triple = "x86_64-pc-linux-gnu"

%struct.H5P_genclass_t = type { ptr, ptr, i32, i64, i32, i32, i32, i8, i32, ptr, ptr, ptr, ptr, ptr, ptr, ptr }
%struct.H5P_genplist_t = type { ptr, i64, i64, i8, ptr, ptr }

@H5P_init_g = external global i8, align 1
@H5_libterm_g = external global i8, align 1
@.str.7 = private unnamed_addr constant [100 x i8] c"generated/home/dtcxzyw/WorkSpace/Projects/compilers/llvm-opt-benchmark/bench/hdf5/hdf5/src/H5Pint.c\00", align 1
@H5E_PLIST_g = external global i64, align 8
@H5E_NOTFOUND_g = external global i64, align 8
@.str.34 = private unnamed_addr constant [33 x i8] c"can't find property in skip list\00", align 1
@H5E_CANTOPERATE_g = external global i64, align 8
@.str.48 = private unnamed_addr constant [23 x i8] c"property doesn't exist\00", align 1
@__func__.H5P__do_prop = private unnamed_addr constant [13 x i8] c"H5P__do_prop\00", align 1
@.str.90 = private unnamed_addr constant [26 x i8] c"can't operate on property\00", align 1

; Function Attrs: nounwind uwtable
define internal i32 @H5P__do_prop(ptr noundef %0, ptr noundef %1, ptr noundef %2, ptr noundef %3, ptr noundef %4) #0 {
  %6 = alloca ptr, align 8
  %7 = alloca ptr, align 8
  %8 = alloca ptr, align 8
  %9 = alloca ptr, align 8
  %10 = alloca ptr, align 8
  %11 = alloca ptr, align 8
  %12 = alloca ptr, align 8
  %13 = alloca i32, align 4
  %14 = alloca i8, align 1
  store ptr %0, ptr %6, align 8, !tbaa !59
  store ptr %1, ptr %7, align 8, !tbaa !39
  store ptr %2, ptr %8, align 8, !tbaa !40
  store ptr %3, ptr %9, align 8, !tbaa !40
  store ptr %4, ptr %10, align 8, !tbaa !40
  call void @llvm.lifetime.start.p0(i64 8, ptr %11) #8
  call void @llvm.lifetime.start.p0(i64 8, ptr %12) #8
  call void @llvm.lifetime.start.p0(i64 4, ptr %13) #8
  store i32 0, ptr %13, align 4, !tbaa !3
  call void @llvm.lifetime.start.p0(i64 1, ptr %14) #8
  store i8 0, ptr %14, align 1, !tbaa !7
  %15 = load i8, ptr @H5P_init_g, align 1, !tbaa !7, !range !9, !noundef !10
  %16 = trunc i8 %15 to i1
  br i1 %16, label %21, label %17

17:                                               ; preds = %5
  %18 = load i8, ptr @H5_libterm_g, align 1, !tbaa !7, !range !9, !noundef !10
  %19 = trunc i8 %18 to i1
  %20 = xor i1 %19, true
  br label %21

21:                                               ; preds = %17, %5
  %22 = phi i1 [ true, %5 ], [ %20, %17 ]
  %23 = xor i1 %22, true
  %24 = xor i1 %23, true
  %25 = zext i1 %24 to i32
  %26 = sext i32 %25 to i64
  %27 = call i64 @llvm.expect.i64(i64 %26, i64 1)
  %28 = icmp ne i64 %27, 0
  br i1 %28, label %29, label %167

29:                                               ; preds = %21
  %30 = load ptr, ptr %6, align 8, !tbaa !59
  %31 = getelementptr inbounds nuw %struct.H5P_genplist_t, ptr %30, i32 0, i32 4
  %32 = load ptr, ptr %31, align 8, !tbaa !80
  %33 = load ptr, ptr %7, align 8, !tbaa !39
  %34 = call ptr @H5SL_search(ptr noundef %32, ptr noundef %33)
  %35 = icmp ne ptr null, %34
  br i1 %35, label %36, label %55

36:                                               ; preds = %29
  br label %37

37:                                               ; preds = %36
  br label %38

38:                                               ; preds = %37
  br label %39

39:                                               ; preds = %38
  %40 = load i64, ptr @H5E_PLIST_g, align 8, !tbaa !11
  %41 = load i64, ptr @H5E_NOTFOUND_g, align 8, !tbaa !11
  %42 = call i32 (ptr, ptr, i32, i64, i64, ptr, ...) @H5E_printf_stack(ptr noundef @.str.7, ptr noundef @__func__.H5P__do_prop, i32 noundef 2833, i64 noundef %40, i64 noundef %41, ptr noundef @.str.48)
  br label %43

43:                                               ; preds = %39
  br label %44

44:                                               ; preds = %43
  store i8 1, ptr %14, align 1, !tbaa !7
  %45 = load i8, ptr %14, align 1, !tbaa !7, !range !9, !noundef !10
  %46 = trunc i8 %45 to i1
  %47 = zext i1 %46 to i8
  store i8 %47, ptr %14, align 1, !tbaa !7
  br label %48

48:                                               ; preds = %44
  br label %49

49:                                               ; preds = %48
  br label %50

50:                                               ; preds = %49
  store i32 -1, ptr %13, align 4, !tbaa !3
  br label %166

51:                                               ; No predecessors!
  br label %52

52:                                               ; preds = %51
  br label %53

53:                                               ; preds = %52
  br label %54

54:                                               ; preds = %53
  br label %55

55:                                               ; preds = %54, %29
  %56 = load ptr, ptr %6, align 8, !tbaa !59
  %57 = getelementptr inbounds nuw %struct.H5P_genplist_t, ptr %56, i32 0, i32 5
  %58 = load ptr, ptr %57, align 8, !tbaa !79
  %59 = load ptr, ptr %7, align 8, !tbaa !39
  %60 = call ptr @H5SL_search(ptr noundef %58, ptr noundef %59)
  store ptr %60, ptr %12, align 8, !tbaa !68
  %61 = icmp ne ptr null, %60
  br i1 %61, label %62, label %90

62:                                               ; preds = %55
  %63 = load ptr, ptr %8, align 8, !tbaa !40
  %64 = load ptr, ptr %6, align 8, !tbaa !59
  %65 = load ptr, ptr %7, align 8, !tbaa !39
  %66 = load ptr, ptr %12, align 8, !tbaa !68
  %67 = load ptr, ptr %10, align 8, !tbaa !40
  %68 = call i32 %63(ptr noundef %64, ptr noundef %65, ptr noundef %66, ptr noundef %67)
  %69 = icmp slt i32 %68, 0
  br i1 %69, label %70, label %89

70:                                               ; preds = %62
  br label %71

71:                                               ; preds = %70
  br label %72

72:                                               ; preds = %71
  br label %73

73:                                               ; preds = %72
  %74 = load i64, ptr @H5E_PLIST_g, align 8, !tbaa !11
  %75 = load i64, ptr @H5E_CANTOPERATE_g, align 8, !tbaa !11
  %76 = call i32 (ptr, ptr, i32, i64, i64, ptr, ...) @H5E_printf_stack(ptr noundef @.str.7, ptr noundef @__func__.H5P__do_prop, i32 noundef 2839, i64 noundef %74, i64 noundef %75, ptr noundef @.str.90)
  br label %77

77:                                               ; preds = %73
  br label %78

78:                                               ; preds = %77
  store i8 1, ptr %14, align 1, !tbaa !7
  %79 = load i8, ptr %14, align 1, !tbaa !7, !range !9, !noundef !10
  %80 = trunc i8 %79 to i1
  %81 = zext i1 %80 to i8
  store i8 %81, ptr %14, align 1, !tbaa !7
  br label %82

82:                                               ; preds = %78
  br label %83

83:                                               ; preds = %82
  br label %84

84:                                               ; preds = %83
  store i32 -1, ptr %13, align 4, !tbaa !3
  br label %166

85:                                               ; No predecessors!
  br label %86

86:                                               ; preds = %85
  br label %87

87:                                               ; preds = %86
  br label %88

88:                                               ; preds = %87
  br label %89

89:                                               ; preds = %88, %62
  br label %165

90:                                               ; preds = %55
  %91 = load ptr, ptr %6, align 8, !tbaa !59
  %92 = getelementptr inbounds nuw %struct.H5P_genplist_t, ptr %91, i32 0, i32 0
  %93 = load ptr, ptr %92, align 8, !tbaa !63
  store ptr %93, ptr %11, align 8, !tbaa !22
  br label %94

94:                                               ; preds = %138, %90
  %95 = load ptr, ptr %11, align 8, !tbaa !22
  %96 = icmp ne ptr null, %95
  br i1 %96, label %97, label %142

97:                                               ; preds = %94
  %98 = load ptr, ptr %11, align 8, !tbaa !22
  %99 = getelementptr inbounds nuw %struct.H5P_genclass_t, ptr %98, i32 0, i32 3
  %100 = load i64, ptr %99, align 8, !tbaa !46
  %101 = icmp ugt i64 %100, 0
  br i1 %101, label %102, label %138

102:                                              ; preds = %97
  %103 = load ptr, ptr %11, align 8, !tbaa !22
  %104 = getelementptr inbounds nuw %struct.H5P_genclass_t, ptr %103, i32 0, i32 9
  %105 = load ptr, ptr %104, align 8, !tbaa !52
  %106 = load ptr, ptr %7, align 8, !tbaa !39
  %107 = call ptr @H5SL_search(ptr noundef %105, ptr noundef %106)
  store ptr %107, ptr %12, align 8, !tbaa !68
  %108 = icmp ne ptr null, %107
  br i1 %108, label %109, label %137

109:                                              ; preds = %102
  %110 = load ptr, ptr %9, align 8, !tbaa !40
  %111 = load ptr, ptr %6, align 8, !tbaa !59
  %112 = load ptr, ptr %7, align 8, !tbaa !39
  %113 = load ptr, ptr %12, align 8, !tbaa !68
  %114 = load ptr, ptr %10, align 8, !tbaa !40
  %115 = call i32 %110(ptr noundef %111, ptr noundef %112, ptr noundef %113, ptr noundef %114)
  %116 = icmp slt i32 %115, 0
  br i1 %116, label %117, label %136

117:                                              ; preds = %109
  br label %118

118:                                              ; preds = %117
  br label %119

119:                                              ; preds = %118
  br label %120

120:                                              ; preds = %119
  %121 = load i64, ptr @H5E_PLIST_g, align 8, !tbaa !11
  %122 = load i64, ptr @H5E_CANTOPERATE_g, align 8, !tbaa !11
  %123 = call i32 (ptr, ptr, i32, i64, i64, ptr, ...) @H5E_printf_stack(ptr noundef @.str.7, ptr noundef @__func__.H5P__do_prop, i32 noundef 2853, i64 noundef %121, i64 noundef %122, ptr noundef @.str.90)
  br label %124

124:                                              ; preds = %120
  br label %125

125:                                              ; preds = %124
  store i8 1, ptr %14, align 1, !tbaa !7
  %126 = load i8, ptr %14, align 1, !tbaa !7, !range !9, !noundef !10
  %127 = trunc i8 %126 to i1
  %128 = zext i1 %127 to i8
  store i8 %128, ptr %14, align 1, !tbaa !7
  br label %129

129:                                              ; preds = %125
  br label %130

130:                                              ; preds = %129
  br label %131

131:                                              ; preds = %130
  store i32 -1, ptr %13, align 4, !tbaa !3
  br label %166

132:                                              ; No predecessors!
  br label %133

133:                                              ; preds = %132
  br label %134

134:                                              ; preds = %133
  br label %135

135:                                              ; preds = %134
  br label %136

136:                                              ; preds = %135, %109
  br label %142

137:                                              ; preds = %102
  br label %138

138:                                              ; preds = %137, %97
  %139 = load ptr, ptr %11, align 8, !tbaa !22
  %140 = getelementptr inbounds nuw %struct.H5P_genclass_t, ptr %139, i32 0, i32 0
  %141 = load ptr, ptr %140, align 8, !tbaa !41
  store ptr %141, ptr %11, align 8, !tbaa !22
  br label %94, !llvm.loop !107

142:                                              ; preds = %136, %94
  %143 = load ptr, ptr %11, align 8, !tbaa !22
  %144 = icmp eq ptr null, %143
  br i1 %144, label %145, label %164

145:                                              ; preds = %142
  br label %146

146:                                              ; preds = %145
  br label %147

147:                                              ; preds = %146
  br label %148

148:                                              ; preds = %147
  %149 = load i64, ptr @H5E_PLIST_g, align 8, !tbaa !11
  %150 = load i64, ptr @H5E_NOTFOUND_g, align 8, !tbaa !11
  %151 = call i32 (ptr, ptr, i32, i64, i64, ptr, ...) @H5E_printf_stack(ptr noundef @.str.7, ptr noundef @__func__.H5P__do_prop, i32 noundef 2868, i64 noundef %149, i64 noundef %150, ptr noundef @.str.34)
  br label %152

152:                                              ; preds = %148
  br label %153

153:                                              ; preds = %152
  store i8 1, ptr %14, align 1, !tbaa !7
  %154 = load i8, ptr %14, align 1, !tbaa !7, !range !9, !noundef !10
  %155 = trunc i8 %154 to i1
  %156 = zext i1 %155 to i8
  store i8 %156, ptr %14, align 1, !tbaa !7
  br label %157

157:                                              ; preds = %153
  br label %158

158:                                              ; preds = %157
  br label %159

159:                                              ; preds = %158
  store i32 -1, ptr %13, align 4, !tbaa !3
  br label %166

160:                                              ; No predecessors!
  br label %161

161:                                              ; preds = %160
  br label %162

162:                                              ; preds = %161
  br label %163

163:                                              ; preds = %162
  br label %164

164:                                              ; preds = %163, %142
  br label %165

165:                                              ; preds = %164, %89
  br label %166

166:                                              ; preds = %165, %159, %131, %84, %50
  br label %167

167:                                              ; preds = %166, %21
  %168 = load i32, ptr %13, align 4, !tbaa !3
  call void @llvm.lifetime.end.p0(i64 1, ptr %14) #8
  call void @llvm.lifetime.end.p0(i64 4, ptr %13) #8
  call void @llvm.lifetime.end.p0(i64 8, ptr %12) #8
  call void @llvm.lifetime.end.p0(i64 8, ptr %11) #8
  ret i32 %168
}