; Function Attrs: nounwind uwtable
define internal fastcc range(i32 -1, 1) i32 @H5P__do_prop(ptr noundef %0, ptr noundef %1, ptr noundef readonly captures(none) %2, ptr noundef readonly captures(none) %3, ptr noundef %4) unnamed_addr #0 {
  %6 = load i8, ptr @H5P_init_g, align 1, !tbaa !3, !range !7, !noundef !8
  %7 = trunc nuw i8 %6 to i1
  %8 = load i8, ptr @H5_libterm_g, align 1, !range !7
  %9 = trunc nuw i8 %8 to i1
  %10 = xor i1 %9, true
  %11 = select i1 %7, i1 true, i1 %10
  br i1 %11, label %12, label %48, !prof !9

12:                                               ; preds = %5
  %13 = getelementptr inbounds nuw i8, ptr %0, i64 32
  %14 = load ptr, ptr %13, align 8, !tbaa !59
  %15 = tail call ptr @H5SL_search(ptr noundef %14, ptr noundef %1) #14
  %.not = icmp eq ptr %15, null
  br i1 %.not, label %20, label %16

16:                                               ; preds = %12
  %17 = load i64, ptr @H5E_PLIST_g, align 8, !tbaa !10
  %18 = load i64, ptr @H5E_NOTFOUND_g, align 8, !tbaa !10
  %19 = tail call i32 (ptr, ptr, i32, i64, i64, ptr, ...) @H5E_printf_stack(ptr noundef nonnull @.str.7, ptr noundef nonnull @__func__.H5P__do_prop, i32 noundef 2833, i64 noundef %17, i64 noundef %18, ptr noundef nonnull @.str.48) #14
  br label %48

20:                                               ; preds = %12
  %21 = getelementptr inbounds nuw i8, ptr %0, i64 40
  %22 = load ptr, ptr %21, align 8, !tbaa !58
  %23 = tail call ptr @H5SL_search(ptr noundef %22, ptr noundef %1) #14
  %.not28 = icmp eq ptr %23, null
  br i1 %.not28, label %.preheader, label %24

.preheader:                                       ; preds = %20
  %.02532 = load ptr, ptr %0, align 8, !tbaa !22
  %cond33 = icmp eq ptr %.02532, null
  br i1 %cond33, label %._crit_edge, label %.lr.ph

24:                                               ; preds = %20
  %25 = tail call i32 %2(ptr noundef nonnull %0, ptr noundef %1, ptr noundef nonnull %23, ptr noundef %4) #14
  %26 = icmp slt i32 %25, 0
  br i1 %26, label %27, label %48

27:                                               ; preds = %24
  %28 = load i64, ptr @H5E_PLIST_g, align 8, !tbaa !10
  %29 = load i64, ptr @H5E_CANTOPERATE_g, align 8, !tbaa !10
  %30 = tail call i32 (ptr, ptr, i32, i64, i64, ptr, ...) @H5E_printf_stack(ptr noundef nonnull @.str.7, ptr noundef nonnull @__func__.H5P__do_prop, i32 noundef 2839, i64 noundef %28, i64 noundef %29, ptr noundef nonnull @.str.90) #14
  br label %48

.lr.ph:                                           ; preds = %.preheader, %44
  %.02534 = phi ptr [ %.025, %44 ], [ %.02532, %.preheader ]
  %31 = getelementptr inbounds nuw i8, ptr %.02534, i64 24
  %32 = load i64, ptr %31, align 8, !tbaa !60
  %.not30 = icmp eq i64 %32, 0
  br i1 %.not30, label %44, label %33

33:                                               ; preds = %.lr.ph
  %34 = getelementptr inbounds nuw i8, ptr %.02534, i64 56
  %35 = load ptr, ptr %34, align 8, !tbaa !47
  %36 = tail call ptr @H5SL_search(ptr noundef %35, ptr noundef %1) #14
  %.not31 = icmp eq ptr %36, null
  br i1 %.not31, label %44, label %37

37:                                               ; preds = %33
  %38 = tail call i32 %3(ptr noundef nonnull %0, ptr noundef %1, ptr noundef nonnull %36, ptr noundef %4) #14
  %39 = icmp slt i32 %38, 0
  br i1 %39, label %40, label %48

40:                                               ; preds = %37
  %41 = load i64, ptr @H5E_PLIST_g, align 8, !tbaa !10
  %42 = load i64, ptr @H5E_CANTOPERATE_g, align 8, !tbaa !10
  %43 = tail call i32 (ptr, ptr, i32, i64, i64, ptr, ...) @H5E_printf_stack(ptr noundef nonnull @.str.7, ptr noundef nonnull @__func__.H5P__do_prop, i32 noundef 2853, i64 noundef %41, i64 noundef %42, ptr noundef nonnull @.str.90) #14
  br label %48

44:                                               ; preds = %33, %.lr.ph
  %.025 = load ptr, ptr %.02534, align 8, !tbaa !22
  %cond = icmp eq ptr %.025, null
  br i1 %cond, label %._crit_edge, label %.lr.ph, !llvm.loop !97

._crit_edge:                                      ; preds = %44, %.preheader
  %45 = load i64, ptr @H5E_PLIST_g, align 8, !tbaa !10
  %46 = load i64, ptr @H5E_NOTFOUND_g, align 8, !tbaa !10
  %47 = tail call i32 (ptr, ptr, i32, i64, i64, ptr, ...) @H5E_printf_stack(ptr noundef nonnull @.str.7, ptr noundef nonnull @__func__.H5P__do_prop, i32 noundef 2868, i64 noundef %45, i64 noundef %46, ptr noundef nonnull @.str.34) #14
  br label %48

48:                                               ; preds = %37, %16, %27, %40, %._crit_edge, %24, %5
  %.0 = phi i32 [ -1, %16 ], [ -1, %27 ], [ 0, %24 ], [ -1, %40 ], [ -1, %._crit_edge ], [ 0, %5 ], [ 0, %37 ]
  ret i32 %.0
}